target datalayout = "e-m:e-p270:32:32-p271:32:32-p272:64:64-i64:64-i128:128-f80:128-n8:16:32:64-S128"
target triple = "x86_64-pc-linux-gnu"

%"class.llvm::PressureChange" = type { i16, i16 }
%"struct.llvm::GenericSchedulerBase::SchedCandidate" = type { %"struct.llvm::GenericSchedulerBase::CandPolicy", ptr, i8, i8, %"struct.llvm::RegPressureDelta", %"struct.llvm::GenericSchedulerBase::SchedResourceDelta" }
%"struct.llvm::GenericSchedulerBase::CandPolicy" = type { i8, i32, i32 }
%"struct.llvm::RegPressureDelta" = type { %"class.llvm::PressureChange", %"class.llvm::PressureChange", %"class.llvm::PressureChange" }
%"struct.llvm::GenericSchedulerBase::SchedResourceDelta" = type { i32, i32 }

; Function Attrs: mustprogress nounwind uwtable
define linkonce_odr hidden noundef zeroext i16 @_ZNSt14numeric_limitsItE3maxEv() #1 comdat align 2 {
  ret i16 -1
}

; Function Attrs: mustprogress nounwind uwtable
define linkonce_odr void @_ZSt4swapIiENSt9enable_ifIXsr6__and_ISt6__not_ISt15__is_tuple_likeIT_EESt21is_move_constructibleIS3_ESt18is_move_assignableIS3_EEE5valueEvE4typeERS3_SC_(ptr noundef nonnull align 4 dereferenceable(4) %0, ptr noundef nonnull align 4 dereferenceable(4) %1) #1 comdat {
  %3 = alloca ptr, align 8
  %4 = alloca ptr, align 8
  %5 = alloca i32, align 4
  store ptr %0, ptr %3, align 8
  store ptr %1, ptr %4, align 8
  %6 = load ptr, ptr %3, align 8
  %7 = load i32, ptr %6, align 4
  store i32 %7, ptr %5, align 4
  %8 = load ptr, ptr %4, align 8
  %9 = load i32, ptr %8, align 4
  %10 = load ptr, ptr %3, align 8
  store i32 %9, ptr %10, align 4
  %11 = load i32, ptr %5, align 4
  %12 = load ptr, ptr %4, align 8
  store i32 %11, ptr %12, align 4
  ret void
}

; Function Attrs: mustprogress nounwind uwtable
define linkonce_odr hidden noundef i32 @_ZNSt14numeric_limitsIiE3maxEv() #1 comdat align 2 {
  ret i32 2147483647
}

; Function Attrs: mustprogress nounwind uwtable
define linkonce_odr hidden noundef zeroext i1 @_ZNK4llvm14PressureChange7isValidEv(ptr noundef nonnull align 2 dereferenceable(4) %0) #1 comdat align 2 {
  %2 = alloca ptr, align 8
  store ptr %0, ptr %2, align 8
  %3 = load ptr, ptr %2, align 8
  %4 = getelementptr inbounds nuw %"class.llvm::PressureChange", ptr %3, i32 0, i32 0
  %5 = load i16, ptr %4, align 2
  %6 = zext i16 %5 to i32
  %7 = icmp sgt i32 %6, 0
  ret i1 %7
}

; Function Attrs: mustprogress nounwind uwtable
define dso_local noundef zeroext i1 @_ZN4llvm7tryLessEiiRNS_20GenericSchedulerBase14SchedCandidateES2_NS0_10CandReasonE(i32 noundef %0, i32 noundef %1, ptr noundef nonnull align 8 dereferenceable(48) %2, ptr noundef nonnull align 8 dereferenceable(48) %3, i8 noundef zeroext %4) #1 {
  %6 = alloca i1, align 1
  %7 = alloca i32, align 4
  %8 = alloca i32, align 4
  %9 = alloca ptr, align 8
  %10 = alloca ptr, align 8
  %11 = alloca i8, align 1
  store i32 %0, ptr %7, align 4
  store i32 %1, ptr %8, align 4
  store ptr %2, ptr %9, align 8
  store ptr %3, ptr %10, align 8
  store i8 %4, ptr %11, align 1
  %12 = load i32, ptr %7, align 4
  %13 = load i32, ptr %8, align 4
  %14 = icmp slt i32 %12, %13
  br i1 %14, label %15, label %19

15:                                               ; preds = %5
  %16 = load i8, ptr %11, align 1
  %17 = load ptr, ptr %9, align 8
  %18 = getelementptr inbounds nuw %"struct.llvm::GenericSchedulerBase::SchedCandidate", ptr %17, i32 0, i32 2
  store i8 %16, ptr %18, align 8
  store i1 true, ptr %6, align 1
  br label %37

19:                                               ; preds = %5
  %20 = load i32, ptr %7, align 4
  %21 = load i32, ptr %8, align 4
  %22 = icmp sgt i32 %20, %21
  br i1 %22, label %23, label %36

23:                                               ; preds = %19
  %24 = load ptr, ptr %10, align 8
  %25 = getelementptr inbounds nuw %"struct.llvm::GenericSchedulerBase::SchedCandidate", ptr %24, i32 0, i32 2
  %26 = load i8, ptr %25, align 8
  %27 = zext i8 %26 to i32
  %28 = load i8, ptr %11, align 1
  %29 = zext i8 %28 to i32
  %30 = icmp sgt i32 %27, %29
  br i1 %30, label %31, label %35

31:                                               ; preds = %23
  %32 = load i8, ptr %11, align 1
  %33 = load ptr, ptr %10, align 8
  %34 = getelementptr inbounds nuw %"struct.llvm::GenericSchedulerBase::SchedCandidate", ptr %33, i32 0, i32 2
  store i8 %32, ptr %34, align 8
  br label %35

35:                                               ; preds = %31, %23
  store i1 true, ptr %6, align 1
  br label %37

36:                                               ; preds = %19
  store i1 false, ptr %6, align 1
  br label %37

37:                                               ; preds = %36, %35, %15
  %38 = load i1, ptr %6, align 1
  ret i1 %38
}

; Function Attrs: mustprogress nounwind uwtable
define linkonce_odr hidden noundef i32 @_ZNK4llvm14PressureChange12getPSetOrMaxEv(ptr noundef nonnull align 2 dereferenceable(4) %0) #1 comdat align 2 {
  %2 = alloca ptr, align 8
  store ptr %0, ptr %2, align 8
  %3 = load ptr, ptr %2, align 8
  %4 = getelementptr inbounds nuw %"class.llvm::PressureChange", ptr %3, i32 0, i32 0
  %5 = load i16, ptr %4, align 2
  %6 = zext i16 %5 to i32
  %7 = sub nsw i32 %6, 1
  %8 = call noundef zeroext i16 @_ZNSt14numeric_limitsItE3maxEv() #2
  %9 = zext i16 %8 to i32
  %10 = and i32 %7, %9
  ret i32 %10
}

; Function Attrs: mustprogress nounwind uwtable
define dso_local noundef zeroext i1 @_ZN4llvm10tryGreaterEiiRNS_20GenericSchedulerBase14SchedCandidateES2_NS0_10CandReasonE(i32 noundef %0, i32 noundef %1, ptr noundef nonnull align 8 dereferenceable(48) %2, ptr noundef nonnull align 8 dereferenceable(48) %3, i8 noundef zeroext %4) #1 {
  %6 = alloca i1, align 1
  %7 = alloca i32, align 4
  %8 = alloca i32, align 4
  %9 = alloca ptr, align 8
  %10 = alloca ptr, align 8
  %11 = alloca i8, align 1
  store i32 %0, ptr %7, align 4
  store i32 %1, ptr %8, align 4
  store ptr %2, ptr %9, align 8
  store ptr %3, ptr %10, align 8
  store i8 %4, ptr %11, align 1
  %12 = load i32, ptr %7, align 4
  %13 = load i32, ptr %8, align 4
  %14 = icmp sgt i32 %12, %13
  br i1 %14, label %15, label %19

15:                                               ; preds = %5
  %16 = load i8, ptr %11, align 1
  %17 = load ptr, ptr %9, align 8
  %18 = getelementptr inbounds nuw %"struct.llvm::GenericSchedulerBase::SchedCandidate", ptr %17, i32 0, i32 2
  store i8 %16, ptr %18, align 8
  store i1 true, ptr %6, align 1
  br label %37

19:                                               ; preds = %5
  %20 = load i32, ptr %7, align 4
  %21 = load i32, ptr %8, align 4
  %22 = icmp slt i32 %20, %21
  br i1 %22, label %23, label %36

23:                                               ; preds = %19
  %24 = load ptr, ptr %10, align 8
  %25 = getelementptr inbounds nuw %"struct.llvm::GenericSchedulerBase::SchedCandidate", ptr %24, i32 0, i32 2
  %26 = load i8, ptr %25, align 8
  %27 = zext i8 %26 to i32
  %28 = load i8, ptr %11, align 1
  %29 = zext i8 %28 to i32
  %30 = icmp sgt i32 %27, %29
  br i1 %30, label %31, label %35

31:                                               ; preds = %23
  %32 = load i8, ptr %11, align 1
  %33 = load ptr, ptr %10, align 8
  %34 = getelementptr inbounds nuw %"struct.llvm::GenericSchedulerBase::SchedCandidate", ptr %33, i32 0, i32 2
  store i8 %32, ptr %34, align 8
  br label %35

35:                                               ; preds = %31, %23
  store i1 true, ptr %6, align 1
  br label %37

36:                                               ; preds = %19
  store i1 false, ptr %6, align 1
  br label %37

37:                                               ; preds = %36, %35, %15
  %38 = load i1, ptr %6, align 1
  ret i1 %38
}

; Function Attrs: mustprogress nounwind uwtable
define linkonce_odr hidden noundef i32 @_ZNK4llvm14PressureChange10getUnitIncEv(ptr noundef nonnull align 2 dereferenceable(4) %0) #1 comdat align 2 {
  %2 = alloca ptr, align 8
  store ptr %0, ptr %2, align 8
  %3 = load ptr, ptr %2, align 8
  %4 = getelementptr inbounds nuw %"class.llvm::PressureChange", ptr %3, i32 0, i32 1
  %5 = load i16, ptr %4, align 2
  %6 = sext i16 %5 to i32
  ret i32 %6
}

; Function Attrs: mustprogress nounwind uwtable
define dso_local noundef zeroext i1 @_ZN4llvm11tryPressureERKNS_14PressureChangeES2_RNS_20GenericSchedulerBase14SchedCandidateES5_NS3_10CandReasonEPKNS_18TargetRegisterInfoERKNS_15MachineFunctionE(ptr noundef nonnull align 2 dereferenceable(4) %0, ptr noundef nonnull align 2 dereferenceable(4) %1, ptr noundef nonnull align 8 dereferenceable(48) %2, ptr noundef nonnull align 8 dereferenceable(48) %3, i8 noundef zeroext %4, ptr noundef %5, ptr noundef nonnull align 8 dereferenceable(1041) %6) #1 {
  %8 = alloca i1, align 1
  %9 = alloca ptr, align 8
  %10 = alloca ptr, align 8
  %11 = alloca ptr, align 8
  %12 = alloca ptr, align 8
  %13 = alloca i8, align 1
  %14 = alloca ptr, align 8
  %15 = alloca ptr, align 8
  %16 = alloca i32, align 4
  %17 = alloca i32, align 4
  %18 = alloca i32, align 4
  %19 = alloca i32, align 4
  store ptr %0, ptr %9, align 8
  store ptr %1, ptr %10, align 8
  store ptr %2, ptr %11, align 8
  store ptr %3, ptr %12, align 8
  store i8 %4, ptr %13, align 1
  store ptr %5, ptr %14, align 8
  store ptr %6, ptr %15, align 8
  %20 = load ptr, ptr %9, align 8
  %21 = call noundef i32 @_ZNK4llvm14PressureChange10getUnitIncEv(ptr noundef nonnull align 2 dereferenceable(4) %20)
  %22 = icmp slt i32 %21, 0
  %23 = zext i1 %22 to i32
  %24 = load ptr, ptr %10, align 8
  %25 = call noundef i32 @_ZNK4llvm14PressureChange10getUnitIncEv(ptr noundef nonnull align 2 dereferenceable(4) %24)
  %26 = icmp slt i32 %25, 0
  %27 = zext i1 %26 to i32
  %28 = load ptr, ptr %11, align 8
  %29 = load ptr, ptr %12, align 8
  %30 = load i8, ptr %13, align 1
  %31 = call noundef zeroext i1 @_ZN4llvm10tryGreaterEiiRNS_20GenericSchedulerBase14SchedCandidateES2_NS0_10CandReasonE(i32 noundef %23, i32 noundef %27, ptr noundef nonnull align 8 dereferenceable(48) %28, ptr noundef nonnull align 8 dereferenceable(48) %29, i8 noundef zeroext %30)
  br i1 %31, label %32, label %33

32:                                               ; preds = %7
  store i1 true, ptr %8, align 1
  br label %103

33:                                               ; preds = %7
  %34 = load ptr, ptr %12, align 8
  %35 = getelementptr inbounds nuw %"struct.llvm::GenericSchedulerBase::SchedCandidate", ptr %34, i32 0, i32 3
  %36 = load i8, ptr %35, align 1
  %37 = trunc i8 %36 to i1
  %38 = zext i1 %37 to i32
  %39 = load ptr, ptr %11, align 8
  %40 = getelementptr inbounds nuw %"struct.llvm::GenericSchedulerBase::SchedCandidate", ptr %39, i32 0, i32 3
  %41 = load i8, ptr %40, align 1
  %42 = trunc i8 %41 to i1
  %43 = zext i1 %42 to i32
  %44 = icmp ne i32 %38, %43
  br i1 %44, label %45, label %46

45:                                               ; preds = %33
  store i1 false, ptr %8, align 1
  br label %103

46:                                               ; preds = %33
  %47 = load ptr, ptr %9, align 8
  %48 = call noundef i32 @_ZNK4llvm14PressureChange12getPSetOrMaxEv(ptr noundef nonnull align 2 dereferenceable(4) %47)
  store i32 %48, ptr %16, align 4
  %49 = load ptr, ptr %10, align 8
  %50 = call noundef i32 @_ZNK4llvm14PressureChange12getPSetOrMaxEv(ptr noundef nonnull align 2 dereferenceable(4) %49)
  store i32 %50, ptr %17, align 4
  %51 = load i32, ptr %16, align 4
  %52 = load i32, ptr %17, align 4
  %53 = icmp eq i32 %51, %52
  br i1 %53, label %54, label %63

54:                                               ; preds = %46
  %55 = load ptr, ptr %9, align 8
  %56 = call noundef i32 @_ZNK4llvm14PressureChange10getUnitIncEv(ptr noundef nonnull align 2 dereferenceable(4) %55)
  %57 = load ptr, ptr %10, align 8
  %58 = call noundef i32 @_ZNK4llvm14PressureChange10getUnitIncEv(ptr noundef nonnull align 2 dereferenceable(4) %57)
  %59 = load ptr, ptr %11, align 8
  %60 = load ptr, ptr %12, align 8
  %61 = load i8, ptr %13, align 1
  %62 = call noundef zeroext i1 @_ZN4llvm7tryLessEiiRNS_20GenericSchedulerBase14SchedCandidateES2_NS0_10CandReasonE(i32 noundef %56, i32 noundef %58, ptr noundef nonnull align 8 dereferenceable(48) %59, ptr noundef nonnull align 8 dereferenceable(48) %60, i8 noundef zeroext %61)
  store i1 %62, ptr %8, align 1
  br label %103

63:                                               ; preds = %46
  %64 = load ptr, ptr %9, align 8
  %65 = call noundef zeroext i1 @_ZNK4llvm14PressureChange7isValidEv(ptr noundef nonnull align 2 dereferenceable(4) %64)
  br i1 %65, label %66, label %74

66:                                               ; preds = %63
  %67 = load ptr, ptr %14, align 8
  %68 = load ptr, ptr %15, align 8
  %69 = load i32, ptr %16, align 4
  %70 = load ptr, ptr %67, align 8
  %71 = getelementptr inbounds ptr, ptr %70, i64 40
  %72 = load ptr, ptr %71, align 8
  %73 = call noundef i32 %72(ptr noundef nonnull align 8 dereferenceable(308) %67, ptr noundef nonnull align 8 dereferenceable(1041) %68, i32 noundef %69)
  br label %76

74:                                               ; preds = %63
  %75 = call noundef i32 @_ZNSt14numeric_limitsIiE3maxEv() #2
  br label %76

76:                                               ; preds = %74, %66
  %77 = phi i32 [ %73, %66 ], [ %75, %74 ]
  store i32 %77, ptr %18, align 4
  %78 = load ptr, ptr %10, align 8
  %79 = call noundef zeroext i1 @_ZNK4llvm14PressureChange7isValidEv(ptr noundef nonnull align 2 dereferenceable(4) %78)
  br i1 %79, label %80, label %88

80:                                               ; preds = %76
  %81 = load ptr, ptr %14, align 8
  %82 = load ptr, ptr %15, align 8
  %83 = load i32, ptr %17, align 4
  %84 = load ptr, ptr %81, align 8
  %85 = getelementptr inbounds ptr, ptr %84, i64 40
  %86 = load ptr, ptr %85, align 8
  %87 = call noundef i32 %86(ptr noundef nonnull align 8 dereferenceable(308) %81, ptr noundef nonnull align 8 dereferenceable(1041) %82, i32 noundef %83)
  br label %90

88:                                               ; preds = %76
  %89 = call noundef i32 @_ZNSt14numeric_limitsIiE3maxEv() #2
  br label %90

90:                                               ; preds = %88, %80
  %91 = phi i32 [ %87, %80 ], [ %89, %88 ]
  store i32 %91, ptr %19, align 4
  %92 = load ptr, ptr %9, align 8
  %93 = call noundef i32 @_ZNK4llvm14PressureChange10getUnitIncEv(ptr noundef nonnull align 2 dereferenceable(4) %92)
  %94 = icmp slt i32 %93, 0
  br i1 %94, label %95, label %96

95:                                               ; preds = %90
  call void @_ZSt4swapIiENSt9enable_ifIXsr6__and_ISt6__not_ISt15__is_tuple_likeIT_EESt21is_move_constructibleIS3_ESt18is_move_assignableIS3_EEE5valueEvE4typeERS3_SC_(ptr noundef nonnull align 4 dereferenceable(4) %18, ptr noundef nonnull align 4 dereferenceable(4) %19) #2
  br label %96

96:                                               ; preds = %95, %90
  %97 = load i32, ptr %18, align 4
  %98 = load i32, ptr %19, align 4
  %99 = load ptr, ptr %11, align 8
  %100 = load ptr, ptr %12, align 8
  %101 = load i8, ptr %13, align 1
  %102 = call noundef zeroext i1 @_ZN4llvm10tryGreaterEiiRNS_20GenericSchedulerBase14SchedCandidateES2_NS0_10CandReasonE(i32 noundef %97, i32 noundef %98, ptr noundef nonnull align 8 dereferenceable(48) %99, ptr noundef nonnull align 8 dereferenceable(48) %100, i8 noundef zeroext %101)
  store i1 %102, ptr %8, align 1
  br label %103

103:                                              ; preds = %96, %54, %45, %32
  %104 = load i1, ptr %8, align 1
  ret i1 %104
}