; Function Attrs: mustprogress nounwind uwtable
define dso_local noundef zeroext i1 @_ZN4llvm11tryPressureERKNS_14PressureChangeES2_RNS_20GenericSchedulerBase14SchedCandidateES5_NS3_10CandReasonEPKNS_18TargetRegisterInfoERKNS_15MachineFunctionE(ptr noundef nonnull readonly align 2 captures(none) dereferenceable(4) %0, ptr noundef nonnull readonly align 2 captures(none) dereferenceable(4) %1, ptr noundef nonnull align 8 captures(none) dereferenceable(48) %2, ptr noundef nonnull align 8 captures(none) dereferenceable(48) %3, i8 noundef zeroext %4, ptr noundef %5, ptr noundef nonnull align 8 dereferenceable(1041) %6) local_unnamed_addr #0 {
  %8 = getelementptr inbounds nuw i8, ptr %0, i64 2
  %9 = load i16, ptr %8, align 2
  %10 = lshr i16 %9, 15
  %11 = getelementptr inbounds nuw i8, ptr %1, i64 2
  %12 = load i16, ptr %11, align 2
  %13 = lshr i16 %12, 15
  %14 = icmp samesign ugt i16 %10, %13
  br i1 %14, label %15, label %17

15:                                               ; preds = %7
  %16 = getelementptr inbounds nuw i8, ptr %2, i64 24
  store i8 %4, ptr %16, align 8
  br label %_ZN4llvm7tryLessEiiRNS_20GenericSchedulerBase14SchedCandidateES2_NS0_10CandReasonE.exit

17:                                               ; preds = %7
  %18 = icmp samesign ult i16 %10, %13
  br i1 %18, label %19, label %_ZN4llvm10tryGreaterEiiRNS_20GenericSchedulerBase14SchedCandidateES2_NS0_10CandReasonE.exit

19:                                               ; preds = %17
  %20 = getelementptr inbounds nuw i8, ptr %3, i64 24
  %21 = load i8, ptr %20, align 8
  %22 = icmp ugt i8 %21, %4
  br i1 %22, label %23, label %_ZN4llvm7tryLessEiiRNS_20GenericSchedulerBase14SchedCandidateES2_NS0_10CandReasonE.exit

23:                                               ; preds = %19
  store i8 %4, ptr %20, align 8
  br label %_ZN4llvm7tryLessEiiRNS_20GenericSchedulerBase14SchedCandidateES2_NS0_10CandReasonE.exit

_ZN4llvm10tryGreaterEiiRNS_20GenericSchedulerBase14SchedCandidateES2_NS0_10CandReasonE.exit: ; preds = %17
  %24 = getelementptr inbounds nuw i8, ptr %3, i64 25
  %25 = load i8, ptr %24, align 1
  %26 = getelementptr inbounds nuw i8, ptr %2, i64 25
  %27 = load i8, ptr %26, align 1
  %28 = xor i8 %27, %25
  %29 = and i8 %28, 1
  %.not = icmp eq i8 %29, 0
  br i1 %.not, label %30, label %_ZN4llvm7tryLessEiiRNS_20GenericSchedulerBase14SchedCandidateES2_NS0_10CandReasonE.exit

30:                                               ; preds = %_ZN4llvm10tryGreaterEiiRNS_20GenericSchedulerBase14SchedCandidateES2_NS0_10CandReasonE.exit
  %31 = load i16, ptr %0, align 2
  %32 = add i16 %31, -1
  %33 = zext i16 %32 to i32
  %34 = load i16, ptr %1, align 2
  %35 = add i16 %34, -1
  %36 = zext i16 %35 to i32
  %37 = icmp eq i16 %31, %34
  br i1 %37, label %38, label %49

38:                                               ; preds = %30
  %39 = icmp slt i16 %9, %12
  br i1 %39, label %40, label %42

40:                                               ; preds = %38
  %41 = getelementptr inbounds nuw i8, ptr %2, i64 24
  store i8 %4, ptr %41, align 8
  br label %_ZN4llvm7tryLessEiiRNS_20GenericSchedulerBase14SchedCandidateES2_NS0_10CandReasonE.exit

42:                                               ; preds = %38
  %43 = icmp sgt i16 %9, %12
  br i1 %43, label %44, label %_ZN4llvm7tryLessEiiRNS_20GenericSchedulerBase14SchedCandidateES2_NS0_10CandReasonE.exit

44:                                               ; preds = %42
  %45 = getelementptr inbounds nuw i8, ptr %3, i64 24
  %46 = load i8, ptr %45, align 8
  %47 = icmp ugt i8 %46, %4
  br i1 %47, label %48, label %_ZN4llvm7tryLessEiiRNS_20GenericSchedulerBase14SchedCandidateES2_NS0_10CandReasonE.exit

48:                                               ; preds = %44
  store i8 %4, ptr %45, align 8
  br label %_ZN4llvm7tryLessEiiRNS_20GenericSchedulerBase14SchedCandidateES2_NS0_10CandReasonE.exit

49:                                               ; preds = %30
  %.not41 = icmp eq i16 %31, 0
  br i1 %.not41, label %55, label %50

50:                                               ; preds = %49
  %51 = load ptr, ptr %5, align 8
  %52 = getelementptr inbounds nuw i8, ptr %51, i64 320
  %53 = load ptr, ptr %52, align 8
  %54 = tail call noundef i32 %53(ptr noundef nonnull align 8 dereferenceable(308) %5, ptr noundef nonnull align 8 dereferenceable(1041) %6, i32 noundef %33) #28
  %.pre = load i16, ptr %1, align 2
  br label %55

55:                                               ; preds = %49, %50
  %56 = phi i16 [ %.pre, %50 ], [ %34, %49 ]
  %57 = phi i32 [ %54, %50 ], [ 2147483647, %49 ]
  %.not42 = icmp eq i16 %56, 0
  br i1 %.not42, label %63, label %58

58:                                               ; preds = %55
  %59 = load ptr, ptr %5, align 8
  %60 = getelementptr inbounds nuw i8, ptr %59, i64 320
  %61 = load ptr, ptr %60, align 8
  %62 = tail call noundef i32 %61(ptr noundef nonnull align 8 dereferenceable(308) %5, ptr noundef nonnull align 8 dereferenceable(1041) %6, i32 noundef %36) #28
  br label %63

63:                                               ; preds = %55, %58
  %64 = phi i32 [ %62, %58 ], [ 2147483647, %55 ]
  %65 = load i16, ptr %8, align 2
  %66 = icmp slt i16 %65, 0
  %spec.select = select i1 %66, i32 %64, i32 %57
  %spec.select40 = select i1 %66, i32 %57, i32 %64
  %67 = icmp sgt i32 %spec.select, %spec.select40
  br i1 %67, label %68, label %70

68:                                               ; preds = %63
  %69 = getelementptr inbounds nuw i8, ptr %2, i64 24
  store i8 %4, ptr %69, align 8
  br label %_ZN4llvm7tryLessEiiRNS_20GenericSchedulerBase14SchedCandidateES2_NS0_10CandReasonE.exit

70:                                               ; preds = %63
  %71 = icmp slt i32 %spec.select, %spec.select40
  br i1 %71, label %72, label %_ZN4llvm7tryLessEiiRNS_20GenericSchedulerBase14SchedCandidateES2_NS0_10CandReasonE.exit

72:                                               ; preds = %70
  %73 = getelementptr inbounds nuw i8, ptr %3, i64 24
  %74 = load i8, ptr %73, align 8
  %75 = icmp ugt i8 %74, %4
  br i1 %75, label %76, label %_ZN4llvm7tryLessEiiRNS_20GenericSchedulerBase14SchedCandidateES2_NS0_10CandReasonE.exit

76:                                               ; preds = %72
  store i8 %4, ptr %73, align 8
  br label %_ZN4llvm7tryLessEiiRNS_20GenericSchedulerBase14SchedCandidateES2_NS0_10CandReasonE.exit

_ZN4llvm7tryLessEiiRNS_20GenericSchedulerBase14SchedCandidateES2_NS0_10CandReasonE.exit: ; preds = %19, %23, %15, %76, %72, %70, %68, %48, %44, %42, %40, %_ZN4llvm10tryGreaterEiiRNS_20GenericSchedulerBase14SchedCandidateES2_NS0_10CandReasonE.exit
  %.0 = phi i1 [ false, %_ZN4llvm10tryGreaterEiiRNS_20GenericSchedulerBase14SchedCandidateES2_NS0_10CandReasonE.exit ], [ true, %40 ], [ true, %48 ], [ true, %44 ], [ false, %42 ], [ true, %68 ], [ true, %76 ], [ true, %72 ], [ false, %70 ], [ true, %15 ], [ true, %23 ], [ true, %19 ]
  ret i1 %.0
}